target datalayout = "e-m:e-p270:32:32-p271:32:32-p272:64:64-i64:64-i128:128-f80:128-n8:16:32:64-S128"
target triple = "x86_64-pc-linux-gnu"

%struct._zend_refcounted_h = type { i32, %union.anon }
%union.anon = type { i32 }
%struct._zend_string = type { %struct._zend_refcounted_h, i64, i64, [1 x i8] }

@.str.157 = private unnamed_addr constant [9 x i8] c"interval\00", align 1
@.str.357 = private unnamed_addr constant [6 x i8] c"start\00", align 1
@.str.358 = private unnamed_addr constant [8 x i8] c"current\00", align 1
@.str.359 = private unnamed_addr constant [4 x i8] c"end\00", align 1
@.str.360 = private unnamed_addr constant [12 x i8] c"recurrences\00", align 1
@.str.361 = private unnamed_addr constant [19 x i8] c"include_start_date\00", align 1
@.str.362 = private unnamed_addr constant [17 x i8] c"include_end_date\00", align 1

; Function Attrs: nounwind uwtable
define internal zeroext i1 @date_period_is_internal_property(ptr noundef %0) #0 {
  %2 = alloca ptr, align 8
  %3 = alloca ptr, align 8
  %4 = alloca i64, align 8
  %5 = alloca ptr, align 8
  %6 = alloca ptr, align 8
  %7 = alloca i64, align 8
  %8 = alloca ptr, align 8
  %9 = alloca ptr, align 8
  %10 = alloca i64, align 8
  %11 = alloca ptr, align 8
  %12 = alloca ptr, align 8
  %13 = alloca i64, align 8
  %14 = alloca ptr, align 8
  %15 = alloca ptr, align 8
  %16 = alloca i64, align 8
  %17 = alloca ptr, align 8
  %18 = alloca ptr, align 8
  %19 = alloca i64, align 8
  %20 = alloca ptr, align 8
  %21 = alloca ptr, align 8
  %22 = alloca i64, align 8
  %23 = alloca i1, align 1
  %24 = alloca ptr, align 8
  store ptr %0, ptr %24, align 8
  %25 = load ptr, ptr %24, align 8
  store ptr %25, ptr %2, align 8
  store ptr @.str.357, ptr %3, align 8
  store i64 5, ptr %4, align 8
  %26 = load ptr, ptr %2, align 8
  %27 = getelementptr inbounds %struct._zend_string, ptr %26, i32 0, i32 2
  %28 = load i64, ptr %27, align 8
  %29 = load i64, ptr %4, align 8
  %30 = icmp eq i64 %28, %29
  br i1 %30, label %31, label %39

31:                                               ; preds = %1
  %32 = load ptr, ptr %2, align 8
  %33 = getelementptr inbounds %struct._zend_string, ptr %32, i32 0, i32 3
  %34 = load ptr, ptr %3, align 8
  %35 = load i64, ptr %4, align 8
  %36 = call i32 @memcmp(ptr noundef %33, ptr noundef %34, i64 noundef %35) #14
  %37 = icmp ne i32 %36, 0
  %38 = xor i1 %37, true
  br label %39

39:                                               ; preds = %31, %1
  %40 = phi i1 [ false, %1 ], [ %38, %31 ]
  br i1 %40, label %143, label %41

41:                                               ; preds = %39
  %42 = load ptr, ptr %24, align 8
  store ptr %42, ptr %5, align 8
  store ptr @.str.358, ptr %6, align 8
  store i64 7, ptr %7, align 8
  %43 = load ptr, ptr %5, align 8
  %44 = getelementptr inbounds %struct._zend_string, ptr %43, i32 0, i32 2
  %45 = load i64, ptr %44, align 8
  %46 = load i64, ptr %7, align 8
  %47 = icmp eq i64 %45, %46
  br i1 %47, label %48, label %56

48:                                               ; preds = %41
  %49 = load ptr, ptr %5, align 8
  %50 = getelementptr inbounds %struct._zend_string, ptr %49, i32 0, i32 3
  %51 = load ptr, ptr %6, align 8
  %52 = load i64, ptr %7, align 8
  %53 = call i32 @memcmp(ptr noundef %50, ptr noundef %51, i64 noundef %52) #14
  %54 = icmp ne i32 %53, 0
  %55 = xor i1 %54, true
  br label %56

56:                                               ; preds = %48, %41
  %57 = phi i1 [ false, %41 ], [ %55, %48 ]
  br i1 %57, label %143, label %58

58:                                               ; preds = %56
  %59 = load ptr, ptr %24, align 8
  store ptr %59, ptr %8, align 8
  store ptr @.str.359, ptr %9, align 8
  store i64 3, ptr %10, align 8
  %60 = load ptr, ptr %8, align 8
  %61 = getelementptr inbounds %struct._zend_string, ptr %60, i32 0, i32 2
  %62 = load i64, ptr %61, align 8
  %63 = load i64, ptr %10, align 8
  %64 = icmp eq i64 %62, %63
  br i1 %64, label %65, label %73

65:                                               ; preds = %58
  %66 = load ptr, ptr %8, align 8
  %67 = getelementptr inbounds %struct._zend_string, ptr %66, i32 0, i32 3
  %68 = load ptr, ptr %9, align 8
  %69 = load i64, ptr %10, align 8
  %70 = call i32 @memcmp(ptr noundef %67, ptr noundef %68, i64 noundef %69) #14
  %71 = icmp ne i32 %70, 0
  %72 = xor i1 %71, true
  br label %73

73:                                               ; preds = %65, %58
  %74 = phi i1 [ false, %58 ], [ %72, %65 ]
  br i1 %74, label %143, label %75

75:                                               ; preds = %73
  %76 = load ptr, ptr %24, align 8
  store ptr %76, ptr %11, align 8
  store ptr @.str.157, ptr %12, align 8
  store i64 8, ptr %13, align 8
  %77 = load ptr, ptr %11, align 8
  %78 = getelementptr inbounds %struct._zend_string, ptr %77, i32 0, i32 2
  %79 = load i64, ptr %78, align 8
  %80 = load i64, ptr %13, align 8
  %81 = icmp eq i64 %79, %80
  br i1 %81, label %82, label %90

82:                                               ; preds = %75
  %83 = load ptr, ptr %11, align 8
  %84 = getelementptr inbounds %struct._zend_string, ptr %83, i32 0, i32 3
  %85 = load ptr, ptr %12, align 8
  %86 = load i64, ptr %13, align 8
  %87 = call i32 @memcmp(ptr noundef %84, ptr noundef %85, i64 noundef %86) #14
  %88 = icmp ne i32 %87, 0
  %89 = xor i1 %88, true
  br label %90

90:                                               ; preds = %82, %75
  %91 = phi i1 [ false, %75 ], [ %89, %82 ]
  br i1 %91, label %143, label %92

92:                                               ; preds = %90
  %93 = load ptr, ptr %24, align 8
  store ptr %93, ptr %14, align 8
  store ptr @.str.360, ptr %15, align 8
  store i64 11, ptr %16, align 8
  %94 = load ptr, ptr %14, align 8
  %95 = getelementptr inbounds %struct._zend_string, ptr %94, i32 0, i32 2
  %96 = load i64, ptr %95, align 8
  %97 = load i64, ptr %16, align 8
  %98 = icmp eq i64 %96, %97
  br i1 %98, label %99, label %107

99:                                               ; preds = %92
  %100 = load ptr, ptr %14, align 8
  %101 = getelementptr inbounds %struct._zend_string, ptr %100, i32 0, i32 3
  %102 = load ptr, ptr %15, align 8
  %103 = load i64, ptr %16, align 8
  %104 = call i32 @memcmp(ptr noundef %101, ptr noundef %102, i64 noundef %103) #14
  %105 = icmp ne i32 %104, 0
  %106 = xor i1 %105, true
  br label %107

107:                                              ; preds = %99, %92
  %108 = phi i1 [ false, %92 ], [ %106, %99 ]
  br i1 %108, label %143, label %109

109:                                              ; preds = %107
  %110 = load ptr, ptr %24, align 8
  store ptr %110, ptr %17, align 8
  store ptr @.str.361, ptr %18, align 8
  store i64 18, ptr %19, align 8
  %111 = load ptr, ptr %17, align 8
  %112 = getelementptr inbounds %struct._zend_string, ptr %111, i32 0, i32 2
  %113 = load i64, ptr %112, align 8
  %114 = load i64, ptr %19, align 8
  %115 = icmp eq i64 %113, %114
  br i1 %115, label %116, label %124

116:                                              ; preds = %109
  %117 = load ptr, ptr %17, align 8
  %118 = getelementptr inbounds %struct._zend_string, ptr %117, i32 0, i32 3
  %119 = load ptr, ptr %18, align 8
  %120 = load i64, ptr %19, align 8
  %121 = call i32 @memcmp(ptr noundef %118, ptr noundef %119, i64 noundef %120) #14
  %122 = icmp ne i32 %121, 0
  %123 = xor i1 %122, true
  br label %124

124:                                              ; preds = %116, %109
  %125 = phi i1 [ false, %109 ], [ %123, %116 ]
  br i1 %125, label %143, label %126

126:                                              ; preds = %124
  %127 = load ptr, ptr %24, align 8
  store ptr %127, ptr %20, align 8
  store ptr @.str.362, ptr %21, align 8
  store i64 16, ptr %22, align 8
  %128 = load ptr, ptr %20, align 8
  %129 = getelementptr inbounds %struct._zend_string, ptr %128, i32 0, i32 2
  %130 = load i64, ptr %129, align 8
  %131 = load i64, ptr %22, align 8
  %132 = icmp eq i64 %130, %131
  br i1 %132, label %133, label %141

133:                                              ; preds = %126
  %134 = load ptr, ptr %20, align 8
  %135 = getelementptr inbounds %struct._zend_string, ptr %134, i32 0, i32 3
  %136 = load ptr, ptr %21, align 8
  %137 = load i64, ptr %22, align 8
  %138 = call i32 @memcmp(ptr noundef %135, ptr noundef %136, i64 noundef %137) #14
  %139 = icmp ne i32 %138, 0
  %140 = xor i1 %139, true
  br label %141

141:                                              ; preds = %133, %126
  %142 = phi i1 [ false, %126 ], [ %140, %133 ]
  br i1 %142, label %143, label %144

143:                                              ; preds = %141, %124, %107, %90, %73, %56, %39
  store i1 true, ptr %23, align 1
  br label %145

144:                                              ; preds = %141
  store i1 false, ptr %23, align 1
  br label %145

145:                                              ; preds = %144, %143
  %146 = load i1, ptr %23, align 1
  ret i1 %146
}