; Function Attrs: mustprogress nofree nounwind willreturn memory(argmem: read) uwtable
define internal fastcc noundef zeroext i1 @date_period_is_internal_property(ptr nocapture noundef readonly %0) unnamed_addr #18 {
  %2 = getelementptr inbounds i8, ptr %0, i64 16
  %3 = load i64, ptr %2, align 8
  switch i64 %3, label %.critedge12 [
    i64 5, label %4
    i64 7, label %6
    i64 3, label %8
    i64 8, label %10
    i64 11, label %12
    i64 18, label %14
    i64 16, label %16
  ]

4:                                                ; preds = %1
  %5 = getelementptr inbounds i8, ptr %0, i64 24
  %bcmp = tail call i32 @bcmp(ptr noundef nonnull dereferenceable(5) %5, ptr noundef nonnull dereferenceable(5) @.str.357, i64 5)
  %.not = icmp eq i32 %bcmp, 0
  br i1 %.not, label %18, label %.critedge12

6:                                                ; preds = %1
  %7 = getelementptr inbounds i8, ptr %0, i64 24
  %bcmp54 = tail call i32 @bcmp(ptr noundef nonnull dereferenceable(7) %7, ptr noundef nonnull dereferenceable(7) @.str.358, i64 7)
  %.not55 = icmp eq i32 %bcmp54, 0
  br i1 %.not55, label %18, label %.critedge12

8:                                                ; preds = %1
  %9 = getelementptr inbounds i8, ptr %0, i64 24
  %bcmp56 = tail call i32 @bcmp(ptr noundef nonnull dereferenceable(3) %9, ptr noundef nonnull dereferenceable(3) @.str.359, i64 3)
  %.not57 = icmp eq i32 %bcmp56, 0
  br i1 %.not57, label %18, label %.critedge12

10:                                               ; preds = %1
  %11 = getelementptr inbounds i8, ptr %0, i64 24
  %bcmp58 = tail call i32 @bcmp(ptr noundef nonnull dereferenceable(8) %11, ptr noundef nonnull dereferenceable(8) @.str.157, i64 8)
  %.not59 = icmp eq i32 %bcmp58, 0
  br i1 %.not59, label %18, label %.critedge12

12:                                               ; preds = %1
  %13 = getelementptr inbounds i8, ptr %0, i64 24
  %bcmp60 = tail call i32 @bcmp(ptr noundef nonnull dereferenceable(11) %13, ptr noundef nonnull dereferenceable(11) @.str.360, i64 11)
  %.not61 = icmp eq i32 %bcmp60, 0
  br i1 %.not61, label %18, label %.critedge12

14:                                               ; preds = %1
  %15 = getelementptr inbounds i8, ptr %0, i64 24
  %bcmp62 = tail call i32 @bcmp(ptr noundef nonnull dereferenceable(18) %15, ptr noundef nonnull dereferenceable(18) @.str.361, i64 18)
  %.not63 = icmp eq i32 %bcmp62, 0
  br i1 %.not63, label %18, label %.critedge12

16:                                               ; preds = %1
  %17 = getelementptr inbounds i8, ptr %0, i64 24
  %bcmp64 = tail call i32 @bcmp(ptr noundef nonnull dereferenceable(16) %17, ptr noundef nonnull dereferenceable(16) @.str.362, i64 16)
  %.not65 = icmp eq i32 %bcmp64, 0
  br i1 %.not65, label %18, label %.critedge12

.critedge12:                                      ; preds = %1, %4, %6, %8, %10, %12, %14, %16
  br label %18

18:                                               ; preds = %4, %6, %8, %10, %12, %14, %16, %.critedge12
  %.0 = phi i1 [ false, %.critedge12 ], [ true, %16 ], [ true, %14 ], [ true, %12 ], [ true, %10 ], [ true, %8 ], [ true, %6 ], [ true, %4 ]
  ret i1 %.0
}